; Function Attrs: mustprogress uwtable
define hidden noundef zeroext i1 @_ZNK2cv10ExifReader12checkTagMarkEv(ptr noundef nonnull readonly align 8 captures(none) dereferenceable(76) %0) local_unnamed_addr #5 align 2 {
  %2 = getelementptr inbounds nuw i8, ptr %0, i64 8
  %3 = load ptr, ptr %2, align 8, !tbaa !54
  %4 = load ptr, ptr %0, align 8, !tbaa !46
  %5 = ptrtoint ptr %3 to i64
  %6 = ptrtoint ptr %4 to i64
  %7 = sub i64 %5, %6
  %.not.i = icmp ugt i64 %7, 3
  br i1 %.not.i, label %10, label %8

8:                                                ; preds = %1
  %9 = tail call ptr @__cxa_allocate_exception(i64 1) #25
  tail call void @__cxa_throw(ptr %9, ptr nonnull @_ZTIN12_GLOBAL__N_116ExifParsingErrorE, ptr null) #26
  unreachable

10:                                               ; preds = %1
  %11 = getelementptr inbounds nuw i8, ptr %0, i64 72
  %12 = load i32, ptr %11, align 8, !tbaa !34
  %13 = icmp eq i32 %12, 73
  %14 = getelementptr inbounds nuw i8, ptr %4, i64 2
  %15 = load i8, ptr %14, align 1, !tbaa !12
  %16 = zext i8 %15 to i16
  br i1 %13, label %17, label %23

17:                                               ; preds = %10
  %18 = getelementptr inbounds nuw i8, ptr %4, i64 3
  %19 = load i8, ptr %18, align 1, !tbaa !12
  %20 = zext i8 %19 to i16
  %21 = shl nuw i16 %20, 8
  %22 = or disjoint i16 %21, %16
  br label %_ZNK2cv10ExifReader6getU16Em.exit

23:                                               ; preds = %10
  %24 = shl nuw i16 %16, 8
  %25 = getelementptr inbounds nuw i8, ptr %4, i64 3
  %26 = load i8, ptr %25, align 1, !tbaa !12
  %27 = zext i8 %26 to i16
  %28 = or disjoint i16 %24, %27
  br label %_ZNK2cv10ExifReader6getU16Em.exit

_ZNK2cv10ExifReader6getU16Em.exit:                ; preds = %17, %23
  %.0.i = phi i16 [ %22, %17 ], [ %28, %23 ]
  %.not = icmp eq i16 %.0.i, 42
  ret i1 %.not
}